(dp1
S'failed'
p2
(lp3
S'1'
aS'3'
aS'7'
aS'8'
aS'9'
asS'source_names'
p4
(lp5
S'.'
asS'ids'
p6
(dp7
I2
(S'/Users/josephkahn/dev/rednose/test/sample_test.py'
S'sample_test'
p8
S'SomeTest.test_error'
tp9
sI3
(S'/Users/josephkahn/dev/rednose/test/sample_test.py'
g8
S'SomeTest.test_fail'
tp10
sI4
(S'/Users/josephkahn/dev/rednose/test/sample_test.py'
g8
S'SomeTest.test_skip'
tp11
sI5
(S'/Users/josephkahn/dev/rednose/test/sample_test.py'
g8
S'SomeTest.test_skip_with_description'
tp12
sI6
(S'/Users/josephkahn/dev/rednose/test/sample_test.py'
g8
S'SomeTest.test_success'
tp13
sI7
(S'/Users/josephkahn/dev/rednose/test/sample_test.py'
g8
S'SomeTest.test_utf8'
tp14
sI8
(S'/Users/josephkahn/dev/rednose/test/sample_test.py'
g8
S'SomeTest.test_with_long_description'
tp15
sI9
(S'/Users/josephkahn/dev/rednose/test/encoding_test.py'
S'encoding_test'
S'test'
tp16
ss.