(dp1
S'failed'
p2
(lp3
S'1'
aS'3'
aS'7'
aS'8'
asS'source_names'
p4
(lp5
S'.'
asS'ids'
p6
(dp7
I1
(S'/Users/josephkahn/dev/rednose/test/encoding_test.py'
S'encoding_test'
S'test'
tp8
sI2
(S'/Users/josephkahn/dev/rednose/test/sample_test.py'
S'sample_test'
p9
S'SomeTest.test_error'
tp10
sI3
(S'/Users/josephkahn/dev/rednose/test/sample_test.py'
g9
S'SomeTest.test_fail'
tp11
sI4
(S'/Users/josephkahn/dev/rednose/test/sample_test.py'
g9
S'SomeTest.test_skip'
tp12
sI5
(S'/Users/josephkahn/dev/rednose/test/sample_test.py'
g9
S'SomeTest.test_skip_with_description'
tp13
sI6
(S'/Users/josephkahn/dev/rednose/test/sample_test.py'
g9
S'SomeTest.test_success'
tp14
sI7
(S'/Users/josephkahn/dev/rednose/test/sample_test.py'
g9
S'SomeTest.test_utf8'
tp15
sI8
(S'/Users/josephkahn/dev/rednose/test/sample_test.py'
g9
S'SomeTest.test_with_long_description'
tp16
ss.